target datalayout = "e-m:e-p270:32:32-p271:32:32-p272:64:64-i64:64-i128:128-f80:128-n8:16:32:64-S128"
target triple = "x86_64-pc-linux-gnu"

%struct._packet_info = type { ptr, ptr, i32, i32, %struct.nstime_t, %struct.nstime_t, %struct.nstime_t, i8, ptr, ptr, ptr, ptr, %struct._address, %struct._address, %struct._address, %struct._address, %struct._address, %struct._address, i32, ptr, i8, [3 x i8], %struct.anon, i32, i32, i32, i32, ptr, i8, ptr, ptr, i16, i16, i32, i32, i16, i32, i32, ptr, ptr, ptr, i8, i8, i16, i16, i16, i32, i16, i16, ptr, ptr, ptr, ptr, ptr, i32, i32 }
%struct.nstime_t = type { i64, i32 }
%struct._address = type { i32, i32, ptr, ptr }
%struct.anon = type { i8, [3 x i8] }

@hf_x11_reply = internal global i32 0, align 4
@hf_x11_reply_sequencenumber = internal global i32 0, align 4
@hf_x11_replylength = internal global i32 0, align 4
@hf_x11_unused = internal global i32 0, align 4
@hf_x11_struct_xv_AttributeInfo = internal global i32 0, align 4
@hf_x11_struct_xv_AttributeInfo_flags = internal global i32 0, align 4
@hf_x11_struct_xv_AttributeInfo_min = internal global i32 0, align 4
@hf_x11_struct_xv_AttributeInfo_max = internal global i32 0, align 4
@hf_x11_struct_xv_AttributeInfo_size = internal global i32 0, align 4
@hf_x11_struct_xv_AttributeInfo_name = internal global i32 0, align 4
@hf_x11_xv_QueryPortAttributes_reply_num_attributes = internal global i32 0, align 4
@hf_x11_xv_QueryPortAttributes_reply_text_size = internal global i32 0, align 4
@ett_x11_rectangle = internal global i32 0, align 4
@.str.15627 = private unnamed_addr constant [21 x i8] c"-QueryPortAttributes\00", align 1
@.str.15628 = private unnamed_addr constant [28 x i8] c"%d (xv-QueryPortAttributes)\00", align 1
@struct_xv_AttributeInfo.flags_bits = internal constant [3 x ptr] [ptr @hf_x11_struct_xv_AttributeInfo_flags_mask_Gettable, ptr @hf_x11_struct_xv_AttributeInfo_flags_mask_Settable, ptr null], align 16

; Function Attrs: null_pointer_is_valid sspstrong uwtable
define internal void @listOfByte(ptr noundef %0, ptr noundef %1, ptr noundef %2, i32 noundef %3, i32 noundef %4, i32 noundef %5) #1 {
  %7 = alloca ptr, align 8
  %8 = alloca ptr, align 8
  %9 = alloca ptr, align 8
  %10 = alloca i32, align 4
  %11 = alloca i32, align 4
  %12 = alloca i32, align 4
  store ptr %0, ptr %7, align 8
  store ptr %1, ptr %8, align 8
  store ptr %2, ptr %9, align 8
  store i32 %3, ptr %10, align 4
  store i32 %4, ptr %11, align 4
  store i32 %5, ptr %12, align 4
  %13 = load i32, ptr %11, align 4
  %14 = icmp sle i32 %13, 0
  br i1 %14, label %15, label %16

15:                                               ; preds = %6
  store i32 1, ptr %11, align 4
  br label %16

16:                                               ; preds = %15, %6
  %17 = load ptr, ptr %9, align 8
  %18 = load i32, ptr %10, align 4
  %19 = load ptr, ptr %7, align 8
  %20 = load ptr, ptr %8, align 8
  %21 = load i32, ptr %20, align 4
  %22 = load i32, ptr %11, align 4
  %23 = load i32, ptr %12, align 4
  %24 = call ptr @proto_tree_add_item(ptr noundef %17, i32 noundef %18, ptr noundef %19, i32 noundef %21, i32 noundef %22, i32 noundef %23)
  %25 = load i32, ptr %11, align 4
  %26 = load ptr, ptr %8, align 8
  %27 = load i32, ptr %26, align 4
  %28 = add i32 %27, %25
  store i32 %28, ptr %26, align 4
  ret void
}

; Function Attrs: null_pointer_is_valid sspstrong uwtable
define internal i32 @struct_size_xv_AttributeInfo(ptr noundef %0, ptr noundef %1, i32 noundef %2) #1 {
  %4 = alloca ptr, align 8
  %5 = alloca ptr, align 8
  %6 = alloca i32, align 4
  %7 = alloca i32, align 4
  %8 = alloca i32, align 4
  store ptr %0, ptr %4, align 8
  store ptr %1, ptr %5, align 8
  store i32 %2, ptr %6, align 4
  call void @llvm.lifetime.start.p0(i64 4, ptr %7) #11
  store i32 0, ptr %7, align 4
  call void @llvm.lifetime.start.p0(i64 4, ptr %8) #11
  %9 = load ptr, ptr %4, align 8
  %10 = load ptr, ptr %5, align 8
  %11 = load i32, ptr %10, align 4
  %12 = load i32, ptr %7, align 4
  %13 = add i32 %11, %12
  %14 = add i32 %13, 12
  %15 = load i32, ptr %6, align 4
  %16 = call i32 @tvb_get_uint32(ptr noundef %9, i32 noundef %14, i32 noundef %15)
  store i32 %16, ptr %8, align 4
  %17 = load i32, ptr %8, align 4
  %18 = mul i32 %17, 1
  %19 = load i32, ptr %7, align 4
  %20 = add i32 %19, %18
  store i32 %20, ptr %7, align 4
  %21 = load i32, ptr %7, align 4
  %22 = add i32 %21, 3
  %23 = and i32 %22, -4
  store i32 %23, ptr %7, align 4
  %24 = load i32, ptr %7, align 4
  %25 = add i32 %24, 16
  call void @llvm.lifetime.end.p0(i64 4, ptr %8) #11
  call void @llvm.lifetime.end.p0(i64 4, ptr %7) #11
  ret i32 %25
}

; Function Attrs: null_pointer_is_valid sspstrong uwtable
define internal void @struct_xv_AttributeInfo(ptr noundef %0, ptr noundef %1, ptr noundef %2, i32 noundef %3, i32 noundef %4) #1 {
  %6 = alloca ptr, align 8
  %7 = alloca ptr, align 8
  %8 = alloca ptr, align 8
  %9 = alloca i32, align 4
  %10 = alloca i32, align 4
  %11 = alloca i32, align 4
  %12 = alloca ptr, align 8
  %13 = alloca ptr, align 8
  %14 = alloca i32, align 4
  store ptr %0, ptr %6, align 8
  store ptr %1, ptr %7, align 8
  store ptr %2, ptr %8, align 8
  store i32 %3, ptr %9, align 4
  store i32 %4, ptr %10, align 4
  call void @llvm.lifetime.start.p0(i64 4, ptr %11) #11
  store i32 0, ptr %11, align 4
  br label %15

15:                                               ; preds = %108, %5
  %16 = load i32, ptr %11, align 4
  %17 = load i32, ptr %10, align 4
  %18 = icmp slt i32 %16, %17
  br i1 %18, label %19, label %111

19:                                               ; preds = %15
  call void @llvm.lifetime.start.p0(i64 8, ptr %12) #11
  call void @llvm.lifetime.start.p0(i64 8, ptr %13) #11
  call void @llvm.lifetime.start.p0(i64 4, ptr %14) #11
  %20 = load ptr, ptr %8, align 8
  %21 = load i32, ptr @hf_x11_struct_xv_AttributeInfo, align 4
  %22 = load ptr, ptr %6, align 8
  %23 = load ptr, ptr %7, align 8
  %24 = load i32, ptr %23, align 4
  %25 = load ptr, ptr %6, align 8
  %26 = load ptr, ptr %7, align 8
  %27 = load i32, ptr %9, align 4
  %28 = call i32 @struct_size_xv_AttributeInfo(ptr noundef %25, ptr noundef %26, i32 noundef %27)
  %29 = call ptr @proto_tree_add_item(ptr noundef %20, i32 noundef %21, ptr noundef %22, i32 noundef %24, i32 noundef %28, i32 noundef 0)
  store ptr %29, ptr %12, align 8
  %30 = load ptr, ptr %12, align 8
  %31 = load i32, ptr @ett_x11_rectangle, align 4
  %32 = call ptr @proto_item_add_subtree(ptr noundef %30, i32 noundef %31)
  store ptr %32, ptr %13, align 8
  %33 = load ptr, ptr %13, align 8
  %34 = load ptr, ptr %6, align 8
  %35 = load ptr, ptr %7, align 8
  %36 = load i32, ptr %35, align 4
  %37 = load i32, ptr @hf_x11_struct_xv_AttributeInfo_flags, align 4
  %38 = load i32, ptr @ett_x11_rectangle, align 4
  %39 = load i32, ptr %9, align 4
  %40 = call ptr @proto_tree_add_bitmask(ptr noundef %33, ptr noundef %34, i32 noundef %36, i32 noundef %37, i32 noundef %38, ptr noundef @struct_xv_AttributeInfo.flags_bits, i32 noundef %39)
  %41 = load ptr, ptr %7, align 8
  %42 = load i32, ptr %41, align 4
  %43 = add i32 %42, 4
  store i32 %43, ptr %41, align 4
  %44 = load ptr, ptr %13, align 8
  %45 = load i32, ptr @hf_x11_struct_xv_AttributeInfo_min, align 4
  %46 = load ptr, ptr %6, align 8
  %47 = load ptr, ptr %7, align 8
  %48 = load i32, ptr %47, align 4
  %49 = load i32, ptr %9, align 4
  %50 = call ptr @proto_tree_add_item(ptr noundef %44, i32 noundef %45, ptr noundef %46, i32 noundef %48, i32 noundef 4, i32 noundef %49)
  %51 = load ptr, ptr %7, align 8
  %52 = load i32, ptr %51, align 4
  %53 = add i32 %52, 4
  store i32 %53, ptr %51, align 4
  %54 = load ptr, ptr %13, align 8
  %55 = load i32, ptr @hf_x11_struct_xv_AttributeInfo_max, align 4
  %56 = load ptr, ptr %6, align 8
  %57 = load ptr, ptr %7, align 8
  %58 = load i32, ptr %57, align 4
  %59 = load i32, ptr %9, align 4
  %60 = call ptr @proto_tree_add_item(ptr noundef %54, i32 noundef %55, ptr noundef %56, i32 noundef %58, i32 noundef 4, i32 noundef %59)
  %61 = load ptr, ptr %7, align 8
  %62 = load i32, ptr %61, align 4
  %63 = add i32 %62, 4
  store i32 %63, ptr %61, align 4
  %64 = load ptr, ptr %6, align 8
  %65 = load ptr, ptr %7, align 8
  %66 = load i32, ptr %65, align 4
  %67 = load i32, ptr %9, align 4
  %68 = call i32 @tvb_get_uint32(ptr noundef %64, i32 noundef %66, i32 noundef %67)
  store i32 %68, ptr %14, align 4
  %69 = load ptr, ptr %13, align 8
  %70 = load i32, ptr @hf_x11_struct_xv_AttributeInfo_size, align 4
  %71 = load ptr, ptr %6, align 8
  %72 = load ptr, ptr %7, align 8
  %73 = load i32, ptr %72, align 4
  %74 = load i32, ptr %9, align 4
  %75 = call ptr @proto_tree_add_item(ptr noundef %69, i32 noundef %70, ptr noundef %71, i32 noundef %73, i32 noundef 4, i32 noundef %74)
  %76 = load ptr, ptr %7, align 8
  %77 = load i32, ptr %76, align 4
  %78 = add i32 %77, 4
  store i32 %78, ptr %76, align 4
  %79 = load ptr, ptr %6, align 8
  %80 = load ptr, ptr %7, align 8
  %81 = load ptr, ptr %13, align 8
  %82 = load i32, ptr @hf_x11_struct_xv_AttributeInfo_name, align 4
  %83 = load i32, ptr %14, align 4
  %84 = load i32, ptr %9, align 4
  call void @listOfByte(ptr noundef %79, ptr noundef %80, ptr noundef %81, i32 noundef %82, i32 noundef %83, i32 noundef %84)
  %85 = load ptr, ptr %7, align 8
  %86 = load i32, ptr %85, align 4
  %87 = srem i32 %86, 4
  %88 = icmp ne i32 %87, 0
  br i1 %88, label %89, label %107

89:                                               ; preds = %19
  %90 = load ptr, ptr %13, align 8
  %91 = load i32, ptr @hf_x11_unused, align 4
  %92 = load ptr, ptr %6, align 8
  %93 = load ptr, ptr %7, align 8
  %94 = load i32, ptr %93, align 4
  %95 = load ptr, ptr %7, align 8
  %96 = load i32, ptr %95, align 4
  %97 = srem i32 %96, 4
  %98 = sub i32 4, %97
  %99 = call ptr @proto_tree_add_item(ptr noundef %90, i32 noundef %91, ptr noundef %92, i32 noundef %94, i32 noundef %98, i32 noundef 0)
  %100 = load ptr, ptr %7, align 8
  %101 = load i32, ptr %100, align 4
  %102 = srem i32 %101, 4
  %103 = sub i32 4, %102
  %104 = load ptr, ptr %7, align 8
  %105 = load i32, ptr %104, align 4
  %106 = add i32 %105, %103
  store i32 %106, ptr %104, align 4
  br label %107

107:                                              ; preds = %89, %19
  call void @llvm.lifetime.end.p0(i64 4, ptr %14) #11
  call void @llvm.lifetime.end.p0(i64 8, ptr %13) #11
  call void @llvm.lifetime.end.p0(i64 8, ptr %12) #11
  br label %108

108:                                              ; preds = %107
  %109 = load i32, ptr %11, align 4
  %110 = add i32 %109, 1
  store i32 %110, ptr %11, align 4
  br label %15, !llvm.loop !197

111:                                              ; preds = %15
  call void @llvm.lifetime.end.p0(i64 4, ptr %11) #11
  ret void
}

; Function Attrs: null_pointer_is_valid sspstrong uwtable
define internal void @xvQueryPortAttributes_Reply(ptr noundef %0, ptr noundef %1, ptr noundef %2, ptr noundef %3, i32 noundef %4) #1 {
  %6 = alloca ptr, align 8
  %7 = alloca ptr, align 8
  %8 = alloca ptr, align 8
  %9 = alloca ptr, align 8
  %10 = alloca i32, align 4
  %11 = alloca i32, align 4
  %12 = alloca i32, align 4
  store ptr %0, ptr %6, align 8
  store ptr %1, ptr %7, align 8
  store ptr %2, ptr %8, align 8
  store ptr %3, ptr %9, align 8
  store i32 %4, ptr %10, align 4
  call void @llvm.lifetime.start.p0(i64 4, ptr %11) #11
  call void @llvm.lifetime.start.p0(i64 4, ptr %12) #11
  %13 = load ptr, ptr %7, align 8
  %14 = getelementptr inbounds nuw %struct._packet_info, ptr %13, i32 0, i32 1
  %15 = load ptr, ptr %14, align 8
  call void (ptr, i32, ptr, ...) @col_append_fstr(ptr noundef %15, i32 noundef 25, ptr noundef @.str.15627)
  %16 = load ptr, ptr %6, align 8
  %17 = load ptr, ptr %8, align 8
  %18 = load ptr, ptr %9, align 8
  %19 = load i32, ptr @hf_x11_reply, align 4
  %20 = load i32, ptr %10, align 4
  %21 = call i32 @field8(ptr noundef %16, ptr noundef %17, ptr noundef %18, i32 noundef %19, i32 noundef %20)
  %22 = load ptr, ptr %9, align 8
  %23 = load i32, ptr @hf_x11_unused, align 4
  %24 = load ptr, ptr %6, align 8
  %25 = load ptr, ptr %8, align 8
  %26 = load i32, ptr %25, align 4
  %27 = call ptr @proto_tree_add_item(ptr noundef %22, i32 noundef %23, ptr noundef %24, i32 noundef %26, i32 noundef 1, i32 noundef 0)
  %28 = load ptr, ptr %8, align 8
  %29 = load i32, ptr %28, align 4
  %30 = add i32 %29, 1
  store i32 %30, ptr %28, align 4
  %31 = load ptr, ptr %6, align 8
  %32 = load ptr, ptr %8, align 8
  %33 = load i32, ptr %32, align 4
  %34 = load i32, ptr %10, align 4
  %35 = call zeroext i16 @tvb_get_uint16(ptr noundef %31, i32 noundef %33, i32 noundef %34)
  %36 = zext i16 %35 to i32
  store i32 %36, ptr %11, align 4
  %37 = load ptr, ptr %9, align 8
  %38 = load i32, ptr @hf_x11_reply_sequencenumber, align 4
  %39 = load ptr, ptr %6, align 8
  %40 = load ptr, ptr %8, align 8
  %41 = load i32, ptr %40, align 4
  %42 = load i32, ptr %11, align 4
  %43 = load i32, ptr %11, align 4
  %44 = call ptr (ptr, i32, ptr, i32, i32, i32, ptr, ...) @proto_tree_add_uint_format_value(ptr noundef %37, i32 noundef %38, ptr noundef %39, i32 noundef %41, i32 noundef 2, i32 noundef %42, ptr noundef @.str.15628, i32 noundef %43)
  %45 = load ptr, ptr %8, align 8
  %46 = load i32, ptr %45, align 4
  %47 = add i32 %46, 2
  store i32 %47, ptr %45, align 4
  %48 = load ptr, ptr %9, align 8
  %49 = load i32, ptr @hf_x11_replylength, align 4
  %50 = load ptr, ptr %6, align 8
  %51 = load ptr, ptr %8, align 8
  %52 = load i32, ptr %51, align 4
  %53 = load i32, ptr %10, align 4
  %54 = call ptr @proto_tree_add_item(ptr noundef %48, i32 noundef %49, ptr noundef %50, i32 noundef %52, i32 noundef 4, i32 noundef %53)
  %55 = load ptr, ptr %8, align 8
  %56 = load i32, ptr %55, align 4
  %57 = add i32 %56, 4
  store i32 %57, ptr %55, align 4
  %58 = load ptr, ptr %6, align 8
  %59 = load ptr, ptr %8, align 8
  %60 = load i32, ptr %59, align 4
  %61 = load i32, ptr %10, align 4
  %62 = call i32 @tvb_get_uint32(ptr noundef %58, i32 noundef %60, i32 noundef %61)
  store i32 %62, ptr %12, align 4
  %63 = load ptr, ptr %9, align 8
  %64 = load i32, ptr @hf_x11_xv_QueryPortAttributes_reply_num_attributes, align 4
  %65 = load ptr, ptr %6, align 8
  %66 = load ptr, ptr %8, align 8
  %67 = load i32, ptr %66, align 4
  %68 = load i32, ptr %10, align 4
  %69 = call ptr @proto_tree_add_item(ptr noundef %63, i32 noundef %64, ptr noundef %65, i32 noundef %67, i32 noundef 4, i32 noundef %68)
  %70 = load ptr, ptr %8, align 8
  %71 = load i32, ptr %70, align 4
  %72 = add i32 %71, 4
  store i32 %72, ptr %70, align 4
  %73 = load ptr, ptr %9, align 8
  %74 = load i32, ptr @hf_x11_xv_QueryPortAttributes_reply_text_size, align 4
  %75 = load ptr, ptr %6, align 8
  %76 = load ptr, ptr %8, align 8
  %77 = load i32, ptr %76, align 4
  %78 = load i32, ptr %10, align 4
  %79 = call ptr @proto_tree_add_item(ptr noundef %73, i32 noundef %74, ptr noundef %75, i32 noundef %77, i32 noundef 4, i32 noundef %78)
  %80 = load ptr, ptr %8, align 8
  %81 = load i32, ptr %80, align 4
  %82 = add i32 %81, 4
  store i32 %82, ptr %80, align 4
  %83 = load ptr, ptr %9, align 8
  %84 = load i32, ptr @hf_x11_unused, align 4
  %85 = load ptr, ptr %6, align 8
  %86 = load ptr, ptr %8, align 8
  %87 = load i32, ptr %86, align 4
  %88 = call ptr @proto_tree_add_item(ptr noundef %83, i32 noundef %84, ptr noundef %85, i32 noundef %87, i32 noundef 16, i32 noundef 0)
  %89 = load ptr, ptr %8, align 8
  %90 = load i32, ptr %89, align 4
  %91 = add i32 %90, 16
  store i32 %91, ptr %89, align 4
  %92 = load ptr, ptr %6, align 8
  %93 = load ptr, ptr %8, align 8
  %94 = load ptr, ptr %9, align 8
  %95 = load i32, ptr %10, align 4
  %96 = load i32, ptr %12, align 4
  call void @struct_xv_AttributeInfo(ptr noundef %92, ptr noundef %93, ptr noundef %94, i32 noundef %95, i32 noundef %96)
  call void @llvm.lifetime.end.p0(i64 4, ptr %12) #11
  call void @llvm.lifetime.end.p0(i64 4, ptr %11) #11
  ret void
}