; Function Attrs: null_pointer_is_valid sspstrong uwtable
define internal void @xvQueryPortAttributes_Reply(ptr noundef %0, ptr noundef readonly captures(none) %1, ptr noundef captures(none) %2, ptr noundef %3, i32 noundef %4) #1 {
  %6 = getelementptr inbounds nuw i8, ptr %1, i64 8
  %7 = load ptr, ptr %6, align 8
  tail call void (ptr, i32, ptr, ...) @col_append_fstr(ptr noundef %7, i32 noundef 25, ptr noundef nonnull @.str.15627)
  %8 = load i32, ptr @hf_x11_reply, align 4
  %9 = tail call fastcc i32 @field8(ptr noundef %0, ptr noundef %2, ptr noundef %3, i32 noundef %8, i32 noundef %4)
  %10 = load i32, ptr @hf_x11_unused, align 4
  %11 = load i32, ptr %2, align 4
  %12 = tail call ptr @proto_tree_add_item(ptr noundef %3, i32 noundef %10, ptr noundef %0, i32 noundef %11, i32 noundef 1, i32 noundef 0)
  %13 = load i32, ptr %2, align 4
  %14 = add i32 %13, 1
  store i32 %14, ptr %2, align 4
  %15 = tail call zeroext i16 @tvb_get_uint16(ptr noundef %0, i32 noundef %14, i32 noundef %4)
  %16 = zext i16 %15 to i32
  %17 = load i32, ptr @hf_x11_reply_sequencenumber, align 4
  %18 = load i32, ptr %2, align 4
  %19 = tail call ptr (ptr, i32, ptr, i32, i32, i32, ptr, ...) @proto_tree_add_uint_format_value(ptr noundef %3, i32 noundef %17, ptr noundef %0, i32 noundef %18, i32 noundef 2, i32 noundef %16, ptr noundef nonnull @.str.15628, i32 noundef %16)
  %20 = load i32, ptr %2, align 4
  %21 = add i32 %20, 2
  store i32 %21, ptr %2, align 4
  %22 = load i32, ptr @hf_x11_replylength, align 4
  %23 = tail call ptr @proto_tree_add_item(ptr noundef %3, i32 noundef %22, ptr noundef %0, i32 noundef %21, i32 noundef 4, i32 noundef %4)
  %24 = load i32, ptr %2, align 4
  %25 = add i32 %24, 4
  store i32 %25, ptr %2, align 4
  %26 = tail call i32 @tvb_get_uint32(ptr noundef %0, i32 noundef %25, i32 noundef %4)
  %27 = load i32, ptr @hf_x11_xv_QueryPortAttributes_reply_num_attributes, align 4
  %28 = load i32, ptr %2, align 4
  %29 = tail call ptr @proto_tree_add_item(ptr noundef %3, i32 noundef %27, ptr noundef %0, i32 noundef %28, i32 noundef 4, i32 noundef %4)
  %30 = load i32, ptr %2, align 4
  %31 = add i32 %30, 4
  store i32 %31, ptr %2, align 4
  %32 = load i32, ptr @hf_x11_xv_QueryPortAttributes_reply_text_size, align 4
  %33 = tail call ptr @proto_tree_add_item(ptr noundef %3, i32 noundef %32, ptr noundef %0, i32 noundef %31, i32 noundef 4, i32 noundef %4)
  %34 = load i32, ptr %2, align 4
  %35 = add i32 %34, 4
  store i32 %35, ptr %2, align 4
  %36 = load i32, ptr @hf_x11_unused, align 4
  %37 = tail call ptr @proto_tree_add_item(ptr noundef %3, i32 noundef %36, ptr noundef %0, i32 noundef %35, i32 noundef 16, i32 noundef 0)
  %38 = load i32, ptr %2, align 4
  %39 = add i32 %38, 16
  store i32 %39, ptr %2, align 4
  %40 = icmp sgt i32 %26, 0
  br i1 %40, label %.lr.ph.i, label %struct_xv_AttributeInfo.exit

.lr.ph.i:                                         ; preds = %5, %83
  %41 = phi i32 [ %84, %83 ], [ %39, %5 ]
  %.045.i = phi i32 [ %85, %83 ], [ 0, %5 ]
  %42 = load i32, ptr @hf_x11_struct_xv_AttributeInfo, align 4
  %43 = add i32 %41, 12
  %44 = tail call i32 @tvb_get_uint32(ptr noundef %0, i32 noundef %43, i32 noundef %4)
  %45 = add i32 %44, 3
  %46 = and i32 %45, -4
  %47 = add i32 %46, 16
  %48 = tail call ptr @proto_tree_add_item(ptr noundef %3, i32 noundef %42, ptr noundef %0, i32 noundef %41, i32 noundef %47, i32 noundef 0)
  %49 = load i32, ptr @ett_x11_rectangle, align 4
  %50 = tail call ptr @proto_item_add_subtree(ptr noundef %48, i32 noundef %49)
  %51 = load i32, ptr %2, align 4
  %52 = load i32, ptr @hf_x11_struct_xv_AttributeInfo_flags, align 4
  %53 = load i32, ptr @ett_x11_rectangle, align 4
  %54 = tail call ptr @proto_tree_add_bitmask(ptr noundef %50, ptr noundef %0, i32 noundef %51, i32 noundef %52, i32 noundef %53, ptr noundef nonnull @struct_xv_AttributeInfo.flags_bits, i32 noundef %4)
  %55 = load i32, ptr %2, align 4
  %56 = add i32 %55, 4
  store i32 %56, ptr %2, align 4
  %57 = load i32, ptr @hf_x11_struct_xv_AttributeInfo_min, align 4
  %58 = tail call ptr @proto_tree_add_item(ptr noundef %50, i32 noundef %57, ptr noundef %0, i32 noundef %56, i32 noundef 4, i32 noundef %4)
  %59 = load i32, ptr %2, align 4
  %60 = add i32 %59, 4
  store i32 %60, ptr %2, align 4
  %61 = load i32, ptr @hf_x11_struct_xv_AttributeInfo_max, align 4
  %62 = tail call ptr @proto_tree_add_item(ptr noundef %50, i32 noundef %61, ptr noundef %0, i32 noundef %60, i32 noundef 4, i32 noundef %4)
  %63 = load i32, ptr %2, align 4
  %64 = add i32 %63, 4
  store i32 %64, ptr %2, align 4
  %65 = tail call i32 @tvb_get_uint32(ptr noundef %0, i32 noundef %64, i32 noundef %4)
  %66 = load i32, ptr @hf_x11_struct_xv_AttributeInfo_size, align 4
  %67 = load i32, ptr %2, align 4
  %68 = tail call ptr @proto_tree_add_item(ptr noundef %50, i32 noundef %66, ptr noundef %0, i32 noundef %67, i32 noundef 4, i32 noundef %4)
  %69 = load i32, ptr %2, align 4
  %70 = add i32 %69, 4
  store i32 %70, ptr %2, align 4
  %71 = load i32, ptr @hf_x11_struct_xv_AttributeInfo_name, align 4
  %spec.store.select.i.i = tail call i32 @llvm.smax.i32(i32 %65, i32 1)
  %72 = tail call ptr @proto_tree_add_item(ptr noundef %50, i32 noundef %71, ptr noundef %0, i32 noundef %70, i32 noundef %spec.store.select.i.i, i32 noundef %4)
  %73 = load i32, ptr %2, align 4
  %74 = add i32 %73, %spec.store.select.i.i
  store i32 %74, ptr %2, align 4
  %75 = srem i32 %74, 4
  %.not.i = icmp eq i32 %75, 0
  br i1 %.not.i, label %83, label %76

76:                                               ; preds = %.lr.ph.i
  %77 = load i32, ptr @hf_x11_unused, align 4
  %78 = sub nsw i32 4, %75
  %79 = tail call ptr @proto_tree_add_item(ptr noundef %50, i32 noundef %77, ptr noundef %0, i32 noundef %74, i32 noundef %78, i32 noundef 0)
  %80 = load i32, ptr %2, align 4
  %81 = srem i32 %80, 4
  %reass.sub.i = add i32 %80, 4
  %82 = sub i32 %reass.sub.i, %81
  store i32 %82, ptr %2, align 4
  br label %83

83:                                               ; preds = %76, %.lr.ph.i
  %84 = phi i32 [ %82, %76 ], [ %74, %.lr.ph.i ]
  %85 = add nuw nsw i32 %.045.i, 1
  %exitcond.not.i = icmp eq i32 %85, %26
  br i1 %exitcond.not.i, label %struct_xv_AttributeInfo.exit, label %.lr.ph.i, !llvm.loop !144

struct_xv_AttributeInfo.exit:                     ; preds = %83, %5
  ret void
}